
tmp//usr/share/arduino/hardware/arduino/cores/arduino/IPAddress.o:     file format elf32-avr


Disassembly of section .text._ZNK9IPAddress7printToER5Print:

00000000 <_ZNK9IPAddress7printToER5Print>:
   0:	a0 e0       	ldi	r26, 0x00	; 0
   2:	b0 e0       	ldi	r27, 0x00	; 0
   4:	e0 e0       	ldi	r30, 0x00	; 0
   6:	f0 e0       	ldi	r31, 0x00	; 0
   8:	0c 94 00 00 	jmp	0	; 0x0 <_ZNK9IPAddress7printToER5Print>
   c:	6c 01       	movw	r12, r24
   e:	7b 01       	movw	r14, r22
  10:	c0 e0       	ldi	r28, 0x00	; 0
  12:	d0 e0       	ldi	r29, 0x00	; 0
  14:	00 e0       	ldi	r16, 0x00	; 0
  16:	10 e0       	ldi	r17, 0x00	; 0
  18:	f6 01       	movw	r30, r12
  1a:	ec 0f       	add	r30, r28
  1c:	fd 1f       	adc	r31, r29
  1e:	4a e0       	ldi	r20, 0x0A	; 10
  20:	50 e0       	ldi	r21, 0x00	; 0
  22:	62 81       	ldd	r22, Z+2	; 0x02
  24:	c7 01       	movw	r24, r14
  26:	0e 94 00 00 	call	0	; 0x0 <_ZNK9IPAddress7printToER5Print>
  2a:	5c 01       	movw	r10, r24
  2c:	6e e2       	ldi	r22, 0x2E	; 46
  2e:	c7 01       	movw	r24, r14
  30:	0e 94 00 00 	call	0	; 0x0 <_ZNK9IPAddress7printToER5Print>
  34:	8a 0d       	add	r24, r10
  36:	9b 1d       	adc	r25, r11
  38:	08 0f       	add	r16, r24
  3a:	19 1f       	adc	r17, r25
  3c:	21 96       	adiw	r28, 0x01	; 1
  3e:	c3 30       	cpi	r28, 0x03	; 3
  40:	d1 05       	cpc	r29, r1
  42:	01 f4       	brne	.+0      	; 0x44 <_ZNK9IPAddress7printToER5Print+0x44>
  44:	4a e0       	ldi	r20, 0x0A	; 10
  46:	50 e0       	ldi	r21, 0x00	; 0
  48:	f6 01       	movw	r30, r12
  4a:	65 81       	ldd	r22, Z+5	; 0x05
  4c:	c7 01       	movw	r24, r14
  4e:	0e 94 00 00 	call	0	; 0x0 <_ZNK9IPAddress7printToER5Print>
  52:	08 0f       	add	r16, r24
  54:	19 1f       	adc	r17, r25
  56:	c8 01       	movw	r24, r16
  58:	cd b7       	in	r28, 0x3d	; 61
  5a:	de b7       	in	r29, 0x3e	; 62
  5c:	ea e0       	ldi	r30, 0x0A	; 10
  5e:	0c 94 00 00 	jmp	0	; 0x0 <_ZNK9IPAddress7printToER5Print>

Disassembly of section .text._ZN9IPAddressC2Ev:

00000062 <_ZN9IPAddressC1Ev>:
  62:	20 e0       	ldi	r18, 0x00	; 0
  64:	30 e0       	ldi	r19, 0x00	; 0
  66:	fc 01       	movw	r30, r24
  68:	31 83       	std	Z+1, r19	; 0x01
  6a:	20 83       	st	Z, r18
  6c:	12 82       	std	Z+2, r1	; 0x02
  6e:	13 82       	std	Z+3, r1	; 0x03
  70:	14 82       	std	Z+4, r1	; 0x04
  72:	15 82       	std	Z+5, r1	; 0x05
  74:	08 95       	ret

Disassembly of section .text._ZN9IPAddressC2Ehhhh:

000000d8 <_ZN9IPAddressC1Ehhhh>:
  d8:	0f 93       	push	r16
  da:	fc 01       	movw	r30, r24
  dc:	80 e0       	ldi	r24, 0x00	; 0
  de:	90 e0       	ldi	r25, 0x00	; 0
  e0:	91 83       	std	Z+1, r25	; 0x01
  e2:	80 83       	st	Z, r24
  e4:	62 83       	std	Z+2, r22	; 0x02
  e6:	43 83       	std	Z+3, r20	; 0x03
  e8:	24 83       	std	Z+4, r18	; 0x04
  ea:	05 83       	std	Z+5, r16	; 0x05
  ec:	0f 91       	pop	r16
  ee:	08 95       	ret

Disassembly of section .text._ZN9IPAddressC2Em:

000001c8 <_ZN9IPAddressC1Em>:
 1c8:	20 e0       	ldi	r18, 0x00	; 0
 1ca:	30 e0       	ldi	r19, 0x00	; 0
 1cc:	fc 01       	movw	r30, r24
 1ce:	31 83       	std	Z+1, r19	; 0x01
 1d0:	20 83       	st	Z, r18
 1d2:	42 83       	std	Z+2, r20	; 0x02
 1d4:	53 83       	std	Z+3, r21	; 0x03
 1d6:	64 83       	std	Z+4, r22	; 0x04
 1d8:	75 83       	std	Z+5, r23	; 0x05
 1da:	08 95       	ret

Disassembly of section .text._ZN9IPAddressC2EPKh:

000003a4 <_ZN9IPAddressC1EPKh>:
 3a4:	20 e0       	ldi	r18, 0x00	; 0
 3a6:	30 e0       	ldi	r19, 0x00	; 0
 3a8:	fc 01       	movw	r30, r24
 3aa:	31 83       	std	Z+1, r19	; 0x01
 3ac:	20 83       	st	Z, r18
 3ae:	fb 01       	movw	r30, r22
 3b0:	40 81       	ld	r20, Z
 3b2:	51 81       	ldd	r21, Z+1	; 0x01
 3b4:	62 81       	ldd	r22, Z+2	; 0x02
 3b6:	73 81       	ldd	r23, Z+3	; 0x03
 3b8:	fc 01       	movw	r30, r24
 3ba:	42 83       	std	Z+2, r20	; 0x02
 3bc:	53 83       	std	Z+3, r21	; 0x03
 3be:	64 83       	std	Z+4, r22	; 0x04
 3c0:	75 83       	std	Z+5, r23	; 0x05
 3c2:	08 95       	ret

Disassembly of section .text._ZN9IPAddressaSEPKh:

00000768 <_ZN9IPAddressaSEPKh>:
 768:	fc 01       	movw	r30, r24
 76a:	db 01       	movw	r26, r22
 76c:	4d 91       	ld	r20, X+
 76e:	5d 91       	ld	r21, X+
 770:	6d 91       	ld	r22, X+
 772:	7c 91       	ld	r23, X
 774:	42 83       	std	Z+2, r20	; 0x02
 776:	53 83       	std	Z+3, r21	; 0x03
 778:	64 83       	std	Z+4, r22	; 0x04
 77a:	75 83       	std	Z+5, r23	; 0x05
 77c:	08 95       	ret

Disassembly of section .text._ZN9IPAddressaSEm:

00000ee6 <_ZN9IPAddressaSEm>:
 ee6:	fc 01       	movw	r30, r24
 ee8:	42 83       	std	Z+2, r20	; 0x02
 eea:	53 83       	std	Z+3, r21	; 0x03
 eec:	64 83       	std	Z+4, r22	; 0x04
 eee:	75 83       	std	Z+5, r23	; 0x05
 ef0:	08 95       	ret

Disassembly of section .text._ZN9IPAddresseqEPKh:

00001dd8 <_ZN9IPAddresseqEPKh>:
    1dd8:	9b 01       	movw	r18, r22
    1dda:	bc 01       	movw	r22, r24
    1ddc:	6e 5f       	subi	r22, 0xFE	; 254
    1dde:	7f 4f       	sbci	r23, 0xFF	; 255
    1de0:	44 e0       	ldi	r20, 0x04	; 4
    1de2:	50 e0       	ldi	r21, 0x00	; 0
    1de4:	c9 01       	movw	r24, r18
    1de6:	0e 94 00 00 	call	0	; 0x0 <__tmp_reg__>
    1dea:	9c 01       	movw	r18, r24
    1dec:	81 e0       	ldi	r24, 0x01	; 1
    1dee:	23 2b       	or	r18, r19
    1df0:	01 f0       	breq	.+0      	; 0x1df2 <_ZN9IPAddresseqEPKh+0x1a>
    1df2:	80 e0       	ldi	r24, 0x00	; 0
    1df4:	08 95       	ret

Disassembly of section .text.startup._GLOBAL__sub_I__ZN9IPAddressC2Ev:

00003bce <_GLOBAL__sub_I__ZN9IPAddressC2Ev>:
    3bce:	80 e0       	ldi	r24, 0x00	; 0
    3bd0:	90 e0       	ldi	r25, 0x00	; 0
    3bd2:	90 93 00 00 	sts	0x0000, r25
    3bd6:	80 93 00 00 	sts	0x0000, r24
    3bda:	10 92 00 00 	sts	0x0000, r1
    3bde:	10 92 00 00 	sts	0x0000, r1
    3be2:	10 92 00 00 	sts	0x0000, r1
    3be6:	10 92 00 00 	sts	0x0000, r1
    3bea:	08 95       	ret
