
tmp//usr/share/arduino/hardware/arduino/cores/arduino/WInterrupts.o:     file format elf32-avr


Disassembly of section .text.attachInterrupt:

00000000 <attachInterrupt>:
   0:	82 30       	cpi	r24, 0x02	; 2
   2:	00 f4       	brcc	.+0      	; 0x4 <attachInterrupt+0x4>
   4:	e8 2f       	mov	r30, r24
   6:	f0 e0       	ldi	r31, 0x00	; 0
   8:	ee 0f       	add	r30, r30
   a:	ff 1f       	adc	r31, r31
   c:	e0 50       	subi	r30, 0x00	; 0
   e:	f0 40       	sbci	r31, 0x00	; 0
  10:	71 83       	std	Z+1, r23	; 0x01
  12:	60 83       	st	Z, r22
  14:	81 30       	cpi	r24, 0x01	; 1
  16:	01 f0       	breq	.+0      	; 0x18 <attachInterrupt+0x18>
  18:	80 91 69 00 	lds	r24, 0x0069
  1c:	8c 7f       	andi	r24, 0xFC	; 252
  1e:	84 2b       	or	r24, r20
  20:	80 93 69 00 	sts	0x0069, r24
  24:	e8 9a       	sbi	0x1d, 0	; 29
  26:	08 95       	ret
  28:	80 91 69 00 	lds	r24, 0x0069
  2c:	44 0f       	add	r20, r20
  2e:	55 1f       	adc	r21, r21
  30:	44 0f       	add	r20, r20
  32:	55 1f       	adc	r21, r21
  34:	83 7f       	andi	r24, 0xF3	; 243
  36:	84 2b       	or	r24, r20
  38:	80 93 69 00 	sts	0x0069, r24
  3c:	e9 9a       	sbi	0x1d, 1	; 29
  3e:	08 95       	ret

Disassembly of section .text.detachInterrupt:

00000040 <detachInterrupt>:
  40:	82 30       	cpi	r24, 0x02	; 2
  42:	00 f4       	brcc	.+0      	; 0x44 <detachInterrupt+0x4>
  44:	81 30       	cpi	r24, 0x01	; 1
  46:	01 f0       	breq	.+0      	; 0x48 <detachInterrupt+0x8>
  48:	e8 98       	cbi	0x1d, 0	; 29
  4a:	00 c0       	rjmp	.+0      	; 0x4c <detachInterrupt+0xc>
  4c:	e9 98       	cbi	0x1d, 1	; 29
  4e:	e8 2f       	mov	r30, r24
  50:	f0 e0       	ldi	r31, 0x00	; 0
  52:	ee 0f       	add	r30, r30
  54:	ff 1f       	adc	r31, r31
  56:	e0 50       	subi	r30, 0x00	; 0
  58:	f0 40       	sbci	r31, 0x00	; 0
  5a:	11 82       	std	Z+1, r1	; 0x01
  5c:	10 82       	st	Z, r1
  5e:	08 95       	ret

Disassembly of section .text.__vector_1:

000000a0 <__vector_1>:
  a0:	1f 92       	push	r1
  a2:	0f 92       	push	r0
  a4:	0f b6       	in	r0, 0x3f	; 63
  a6:	0f 92       	push	r0
  a8:	11 24       	eor	r1, r1
  aa:	2f 93       	push	r18
  ac:	3f 93       	push	r19
  ae:	4f 93       	push	r20
  b0:	5f 93       	push	r21
  b2:	6f 93       	push	r22
  b4:	7f 93       	push	r23
  b6:	8f 93       	push	r24
  b8:	9f 93       	push	r25
  ba:	af 93       	push	r26
  bc:	bf 93       	push	r27
  be:	ef 93       	push	r30
  c0:	ff 93       	push	r31
  c2:	80 91 00 00 	lds	r24, 0x0000
  c6:	90 91 00 00 	lds	r25, 0x0000
  ca:	89 2b       	or	r24, r25
  cc:	01 f0       	breq	.+0      	; 0xce <__vector_1+0x2e>
  ce:	e0 91 00 00 	lds	r30, 0x0000
  d2:	f0 91 00 00 	lds	r31, 0x0000
  d6:	09 95       	icall
  d8:	ff 91       	pop	r31
  da:	ef 91       	pop	r30
  dc:	bf 91       	pop	r27
  de:	af 91       	pop	r26
  e0:	9f 91       	pop	r25
  e2:	8f 91       	pop	r24
  e4:	7f 91       	pop	r23
  e6:	6f 91       	pop	r22
  e8:	5f 91       	pop	r21
  ea:	4f 91       	pop	r20
  ec:	3f 91       	pop	r19
  ee:	2f 91       	pop	r18
  f0:	0f 90       	pop	r0
  f2:	0f be       	out	0x3f, r0	; 63
  f4:	0f 90       	pop	r0
  f6:	1f 90       	pop	r1
  f8:	18 95       	reti

Disassembly of section .text.__vector_2:

0000019a <__vector_2>:
 19a:	1f 92       	push	r1
 19c:	0f 92       	push	r0
 19e:	0f b6       	in	r0, 0x3f	; 63
 1a0:	0f 92       	push	r0
 1a2:	11 24       	eor	r1, r1
 1a4:	2f 93       	push	r18
 1a6:	3f 93       	push	r19
 1a8:	4f 93       	push	r20
 1aa:	5f 93       	push	r21
 1ac:	6f 93       	push	r22
 1ae:	7f 93       	push	r23
 1b0:	8f 93       	push	r24
 1b2:	9f 93       	push	r25
 1b4:	af 93       	push	r26
 1b6:	bf 93       	push	r27
 1b8:	ef 93       	push	r30
 1ba:	ff 93       	push	r31
 1bc:	80 91 00 00 	lds	r24, 0x0000
 1c0:	90 91 00 00 	lds	r25, 0x0000
 1c4:	89 2b       	or	r24, r25
 1c6:	01 f0       	breq	.+0      	; 0x1c8 <__vector_2+0x2e>
 1c8:	e0 91 00 00 	lds	r30, 0x0000
 1cc:	f0 91 00 00 	lds	r31, 0x0000
 1d0:	09 95       	icall
 1d2:	ff 91       	pop	r31
 1d4:	ef 91       	pop	r30
 1d6:	bf 91       	pop	r27
 1d8:	af 91       	pop	r26
 1da:	9f 91       	pop	r25
 1dc:	8f 91       	pop	r24
 1de:	7f 91       	pop	r23
 1e0:	6f 91       	pop	r22
 1e2:	5f 91       	pop	r21
 1e4:	4f 91       	pop	r20
 1e6:	3f 91       	pop	r19
 1e8:	2f 91       	pop	r18
 1ea:	0f 90       	pop	r0
 1ec:	0f be       	out	0x3f, r0	; 63
 1ee:	0f 90       	pop	r0
 1f0:	1f 90       	pop	r1
 1f2:	18 95       	reti
