
tmp//usr/share/arduino/hardware/arduino/cores/arduino/wiring_analog.o:     file format elf32-avr


Disassembly of section .text.analogReference:

00000000 <analogReference>:
   0:	80 93 00 00 	sts	0x0000, r24
   4:	08 95       	ret

Disassembly of section .text.analogRead:

00000006 <analogRead>:
   6:	8e 30       	cpi	r24, 0x0E	; 14
   8:	00 f0       	brcs	.+0      	; 0xa <analogRead+0x4>
   a:	8e 50       	subi	r24, 0x0E	; 14
   c:	87 70       	andi	r24, 0x07	; 7
   e:	20 91 00 00 	lds	r18, 0x0000
  12:	40 e4       	ldi	r20, 0x40	; 64
  14:	24 9f       	mul	r18, r20
  16:	90 01       	movw	r18, r0
  18:	11 24       	eor	r1, r1
  1a:	82 2b       	or	r24, r18
  1c:	80 93 7c 00 	sts	0x007C, r24
  20:	80 91 7a 00 	lds	r24, 0x007A
  24:	80 64       	ori	r24, 0x40	; 64
  26:	80 93 7a 00 	sts	0x007A, r24
  2a:	80 91 7a 00 	lds	r24, 0x007A
  2e:	86 fd       	sbrc	r24, 6
  30:	00 c0       	rjmp	.+0      	; 0x32 <analogRead+0x2c>
  32:	20 91 78 00 	lds	r18, 0x0078
  36:	30 91 79 00 	lds	r19, 0x0079
  3a:	93 2f       	mov	r25, r19
  3c:	80 e0       	ldi	r24, 0x00	; 0
  3e:	ac 01       	movw	r20, r24
  40:	42 2b       	or	r20, r18
  42:	9a 01       	movw	r18, r20
  44:	c9 01       	movw	r24, r18
  46:	08 95       	ret

Disassembly of section .text.analogWrite:

0000004e <analogWrite>:
  4e:	1f 93       	push	r17
  50:	cf 93       	push	r28
  52:	df 93       	push	r29
  54:	18 2f       	mov	r17, r24
  56:	eb 01       	movw	r28, r22
  58:	61 e0       	ldi	r22, 0x01	; 1
  5a:	0e 94 00 00 	call	0	; 0x0 <__tmp_reg__>
  5e:	20 97       	sbiw	r28, 0x00	; 0
  60:	01 f4       	brne	.+0      	; 0x62 <analogWrite+0x14>
  62:	60 e0       	ldi	r22, 0x00	; 0
  64:	00 c0       	rjmp	.+0      	; 0x66 <analogWrite+0x18>
  66:	cf 3f       	cpi	r28, 0xFF	; 255
  68:	d1 05       	cpc	r29, r1
  6a:	01 f4       	brne	.+0      	; 0x6c <analogWrite+0x1e>
  6c:	61 e0       	ldi	r22, 0x01	; 1
  6e:	81 2f       	mov	r24, r17
  70:	0e 94 00 00 	call	0	; 0x0 <__tmp_reg__>
  74:	00 c0       	rjmp	.+0      	; 0x76 <analogWrite+0x28>
  76:	e1 2f       	mov	r30, r17
  78:	f0 e0       	ldi	r31, 0x00	; 0
  7a:	e0 50       	subi	r30, 0x00	; 0
  7c:	f0 40       	sbci	r31, 0x00	; 0
  7e:	e4 91       	lpm	r30, Z
  80:	e3 30       	cpi	r30, 0x03	; 3
  82:	01 f0       	breq	.+0      	; 0x84 <analogWrite+0x36>
  84:	00 f4       	brcc	.+0      	; 0x86 <analogWrite+0x38>
  86:	e1 30       	cpi	r30, 0x01	; 1
  88:	01 f0       	breq	.+0      	; 0x8a <analogWrite+0x3c>
  8a:	e2 30       	cpi	r30, 0x02	; 2
  8c:	01 f4       	brne	.+0      	; 0x8e <analogWrite+0x40>
  8e:	00 c0       	rjmp	.+0      	; 0x90 <analogWrite+0x42>
  90:	e6 30       	cpi	r30, 0x06	; 6
  92:	01 f0       	breq	.+0      	; 0x94 <analogWrite+0x46>
  94:	e7 30       	cpi	r30, 0x07	; 7
  96:	01 f0       	breq	.+0      	; 0x98 <analogWrite+0x4a>
  98:	e4 30       	cpi	r30, 0x04	; 4
  9a:	01 f4       	brne	.+0      	; 0x9c <analogWrite+0x4e>
  9c:	00 c0       	rjmp	.+0      	; 0x9e <analogWrite+0x50>
  9e:	84 b5       	in	r24, 0x24	; 36
  a0:	80 68       	ori	r24, 0x80	; 128
  a2:	84 bd       	out	0x24, r24	; 36
  a4:	c7 bd       	out	0x27, r28	; 39
  a6:	00 c0       	rjmp	.+0      	; 0xa8 <analogWrite+0x5a>
  a8:	84 b5       	in	r24, 0x24	; 36
  aa:	80 62       	ori	r24, 0x20	; 32
  ac:	84 bd       	out	0x24, r24	; 36
  ae:	c8 bd       	out	0x28, r28	; 40
  b0:	00 c0       	rjmp	.+0      	; 0xb2 <analogWrite+0x64>
  b2:	80 91 80 00 	lds	r24, 0x0080
  b6:	80 68       	ori	r24, 0x80	; 128
  b8:	80 93 80 00 	sts	0x0080, r24
  bc:	d0 93 89 00 	sts	0x0089, r29
  c0:	c0 93 88 00 	sts	0x0088, r28
  c4:	00 c0       	rjmp	.+0      	; 0xc6 <analogWrite+0x78>
  c6:	80 91 80 00 	lds	r24, 0x0080
  ca:	80 62       	ori	r24, 0x20	; 32
  cc:	80 93 80 00 	sts	0x0080, r24
  d0:	d0 93 8b 00 	sts	0x008B, r29
  d4:	c0 93 8a 00 	sts	0x008A, r28
  d8:	00 c0       	rjmp	.+0      	; 0xda <analogWrite+0x8c>
  da:	80 91 b0 00 	lds	r24, 0x00B0
  de:	80 68       	ori	r24, 0x80	; 128
  e0:	80 93 b0 00 	sts	0x00B0, r24
  e4:	c0 93 b3 00 	sts	0x00B3, r28
  e8:	00 c0       	rjmp	.+0      	; 0xea <analogWrite+0x9c>
  ea:	80 91 b0 00 	lds	r24, 0x00B0
  ee:	80 62       	ori	r24, 0x20	; 32
  f0:	80 93 b0 00 	sts	0x00B0, r24
  f4:	c0 93 b4 00 	sts	0x00B4, r28
  f8:	00 c0       	rjmp	.+0      	; 0xfa <analogWrite+0xac>
  fa:	c0 38       	cpi	r28, 0x80	; 128
  fc:	d1 05       	cpc	r29, r1
  fe:	04 f0       	brlt	.+0      	; 0x100 <analogWrite+0xb2>
 100:	00 c0       	rjmp	.+0      	; 0x102 <analogWrite+0xb4>
 102:	00 c0       	rjmp	.+0      	; 0x104 <analogWrite+0xb6>
 104:	df 91       	pop	r29
 106:	cf 91       	pop	r28
 108:	1f 91       	pop	r17
 10a:	08 95       	ret
